ARM GAS  /tmp/cclJ0eKG.s 			page 1


   1              		.cpu cortex-m3
   2              		.arch armv7-m
   3              		.fpu softvfp
   4              		.eabi_attribute 20, 1
   5              		.eabi_attribute 21, 1
   6              		.eabi_attribute 23, 3
   7              		.eabi_attribute 24, 1
   8              		.eabi_attribute 25, 1
   9              		.eabi_attribute 26, 1
  10              		.eabi_attribute 30, 1
  11              		.eabi_attribute 34, 1
  12              		.eabi_attribute 18, 4
  13              		.file	"usart.c"
  14              		.text
  15              	.Ltext0:
  16              		.cfi_sections	.debug_frame
  17              		.file 1 "Core/Src/usart.c"
  18              		.section	.text.MX_USART1_UART_Init,"ax",%progbits
  19              		.align	1
  20              		.global	MX_USART1_UART_Init
  21              		.syntax unified
  22              		.thumb
  23              		.thumb_func
  25              	MX_USART1_UART_Init:
  26              	.LFB65:
   1:Core/Src/usart.c **** /* USER CODE BEGIN Header */
   2:Core/Src/usart.c **** /**
   3:Core/Src/usart.c ****   ******************************************************************************
   4:Core/Src/usart.c ****   * @file    usart.c
   5:Core/Src/usart.c ****   * @brief   This file provides code for the configuration
   6:Core/Src/usart.c ****   *          of the USART instances.
   7:Core/Src/usart.c ****   ******************************************************************************
   8:Core/Src/usart.c ****   * @attention
   9:Core/Src/usart.c ****   *
  10:Core/Src/usart.c ****   * Copyright (c) 2024 STMicroelectronics.
  11:Core/Src/usart.c ****   * All rights reserved.
  12:Core/Src/usart.c ****   *
  13:Core/Src/usart.c ****   * This software is licensed under terms that can be found in the LICENSE file
  14:Core/Src/usart.c ****   * in the root directory of this software component.
  15:Core/Src/usart.c ****   * If no LICENSE file comes with this software, it is provided AS-IS.
  16:Core/Src/usart.c ****   *
  17:Core/Src/usart.c ****   ******************************************************************************
  18:Core/Src/usart.c ****   */
  19:Core/Src/usart.c **** /* USER CODE END Header */
  20:Core/Src/usart.c **** /* Includes ------------------------------------------------------------------*/
  21:Core/Src/usart.c **** #include "usart.h"
  22:Core/Src/usart.c **** 
  23:Core/Src/usart.c **** /* USER CODE BEGIN 0 */
  24:Core/Src/usart.c **** 
  25:Core/Src/usart.c **** /* USER CODE END 0 */
  26:Core/Src/usart.c **** 
  27:Core/Src/usart.c **** UART_HandleTypeDef huart1;
  28:Core/Src/usart.c **** 
  29:Core/Src/usart.c **** /* USART1 init function */
  30:Core/Src/usart.c **** 
  31:Core/Src/usart.c **** void MX_USART1_UART_Init(void)
  32:Core/Src/usart.c **** {
ARM GAS  /tmp/cclJ0eKG.s 			page 2


  27              		.loc 1 32 1 view -0
  28              		.cfi_startproc
  29              		@ args = 0, pretend = 0, frame = 0
  30              		@ frame_needed = 0, uses_anonymous_args = 0
  31 0000 08B5     		push	{r3, lr}
  32              		.cfi_def_cfa_offset 8
  33              		.cfi_offset 3, -8
  34              		.cfi_offset 14, -4
  33:Core/Src/usart.c **** 
  34:Core/Src/usart.c ****   /* USER CODE BEGIN USART1_Init 0 */
  35:Core/Src/usart.c **** 
  36:Core/Src/usart.c ****   /* USER CODE END USART1_Init 0 */
  37:Core/Src/usart.c **** 
  38:Core/Src/usart.c ****   /* USER CODE BEGIN USART1_Init 1 */
  39:Core/Src/usart.c **** 
  40:Core/Src/usart.c ****   /* USER CODE END USART1_Init 1 */
  41:Core/Src/usart.c ****   huart1.Instance = USART1;
  35              		.loc 1 41 3 view .LVU1
  36              		.loc 1 41 19 is_stmt 0 view .LVU2
  37 0002 0A48     		ldr	r0, .L5
  38 0004 0A4B     		ldr	r3, .L5+4
  39 0006 0360     		str	r3, [r0]
  42:Core/Src/usart.c ****   huart1.Init.BaudRate = 115200;
  40              		.loc 1 42 3 is_stmt 1 view .LVU3
  41              		.loc 1 42 24 is_stmt 0 view .LVU4
  42 0008 4FF4E133 		mov	r3, #115200
  43 000c 4360     		str	r3, [r0, #4]
  43:Core/Src/usart.c ****   huart1.Init.WordLength = UART_WORDLENGTH_8B;
  44              		.loc 1 43 3 is_stmt 1 view .LVU5
  45              		.loc 1 43 26 is_stmt 0 view .LVU6
  46 000e 0023     		movs	r3, #0
  47 0010 8360     		str	r3, [r0, #8]
  44:Core/Src/usart.c ****   huart1.Init.StopBits = UART_STOPBITS_1;
  48              		.loc 1 44 3 is_stmt 1 view .LVU7
  49              		.loc 1 44 24 is_stmt 0 view .LVU8
  50 0012 C360     		str	r3, [r0, #12]
  45:Core/Src/usart.c ****   huart1.Init.Parity = UART_PARITY_NONE;
  51              		.loc 1 45 3 is_stmt 1 view .LVU9
  52              		.loc 1 45 22 is_stmt 0 view .LVU10
  53 0014 0361     		str	r3, [r0, #16]
  46:Core/Src/usart.c ****   huart1.Init.Mode = UART_MODE_TX_RX;
  54              		.loc 1 46 3 is_stmt 1 view .LVU11
  55              		.loc 1 46 20 is_stmt 0 view .LVU12
  56 0016 0C22     		movs	r2, #12
  57 0018 4261     		str	r2, [r0, #20]
  47:Core/Src/usart.c ****   huart1.Init.HwFlowCtl = UART_HWCONTROL_NONE;
  58              		.loc 1 47 3 is_stmt 1 view .LVU13
  59              		.loc 1 47 25 is_stmt 0 view .LVU14
  60 001a 8361     		str	r3, [r0, #24]
  48:Core/Src/usart.c ****   huart1.Init.OverSampling = UART_OVERSAMPLING_16;
  61              		.loc 1 48 3 is_stmt 1 view .LVU15
  62              		.loc 1 48 28 is_stmt 0 view .LVU16
  63 001c C361     		str	r3, [r0, #28]
  49:Core/Src/usart.c ****   if (HAL_UART_Init(&huart1) != HAL_OK)
  64              		.loc 1 49 3 is_stmt 1 view .LVU17
  65              		.loc 1 49 7 is_stmt 0 view .LVU18
  66 001e FFF7FEFF 		bl	HAL_UART_Init
ARM GAS  /tmp/cclJ0eKG.s 			page 3


  67              	.LVL0:
  68              		.loc 1 49 6 discriminator 1 view .LVU19
  69 0022 00B9     		cbnz	r0, .L4
  70              	.L1:
  50:Core/Src/usart.c ****   {
  51:Core/Src/usart.c ****     Error_Handler();
  52:Core/Src/usart.c ****   }
  53:Core/Src/usart.c ****   /* USER CODE BEGIN USART1_Init 2 */
  54:Core/Src/usart.c **** 
  55:Core/Src/usart.c ****   /* USER CODE END USART1_Init 2 */
  56:Core/Src/usart.c **** 
  57:Core/Src/usart.c **** }
  71              		.loc 1 57 1 view .LVU20
  72 0024 08BD     		pop	{r3, pc}
  73              	.L4:
  51:Core/Src/usart.c ****   }
  74              		.loc 1 51 5 is_stmt 1 view .LVU21
  75 0026 FFF7FEFF 		bl	Error_Handler
  76              	.LVL1:
  77              		.loc 1 57 1 is_stmt 0 view .LVU22
  78 002a FBE7     		b	.L1
  79              	.L6:
  80              		.align	2
  81              	.L5:
  82 002c 00000000 		.word	huart1
  83 0030 00380140 		.word	1073821696
  84              		.cfi_endproc
  85              	.LFE65:
  87              		.section	.text.HAL_UART_MspInit,"ax",%progbits
  88              		.align	1
  89              		.global	HAL_UART_MspInit
  90              		.syntax unified
  91              		.thumb
  92              		.thumb_func
  94              	HAL_UART_MspInit:
  95              	.LVL2:
  96              	.LFB66:
  58:Core/Src/usart.c **** 
  59:Core/Src/usart.c **** void HAL_UART_MspInit(UART_HandleTypeDef* uartHandle)
  60:Core/Src/usart.c **** {
  97              		.loc 1 60 1 is_stmt 1 view -0
  98              		.cfi_startproc
  99              		@ args = 0, pretend = 0, frame = 24
 100              		@ frame_needed = 0, uses_anonymous_args = 0
 101              		.loc 1 60 1 is_stmt 0 view .LVU24
 102 0000 10B5     		push	{r4, lr}
 103              		.cfi_def_cfa_offset 8
 104              		.cfi_offset 4, -8
 105              		.cfi_offset 14, -4
 106 0002 86B0     		sub	sp, sp, #24
 107              		.cfi_def_cfa_offset 32
  61:Core/Src/usart.c **** 
  62:Core/Src/usart.c ****   GPIO_InitTypeDef GPIO_InitStruct = {0};
 108              		.loc 1 62 3 is_stmt 1 view .LVU25
 109              		.loc 1 62 20 is_stmt 0 view .LVU26
 110 0004 0023     		movs	r3, #0
 111 0006 0293     		str	r3, [sp, #8]
ARM GAS  /tmp/cclJ0eKG.s 			page 4


 112 0008 0393     		str	r3, [sp, #12]
 113 000a 0493     		str	r3, [sp, #16]
 114 000c 0593     		str	r3, [sp, #20]
  63:Core/Src/usart.c ****   if(uartHandle->Instance==USART1)
 115              		.loc 1 63 3 is_stmt 1 view .LVU27
 116              		.loc 1 63 16 is_stmt 0 view .LVU28
 117 000e 0268     		ldr	r2, [r0]
 118              		.loc 1 63 5 view .LVU29
 119 0010 174B     		ldr	r3, .L11
 120 0012 9A42     		cmp	r2, r3
 121 0014 01D0     		beq	.L10
 122              	.LVL3:
 123              	.L7:
  64:Core/Src/usart.c ****   {
  65:Core/Src/usart.c ****   /* USER CODE BEGIN USART1_MspInit 0 */
  66:Core/Src/usart.c **** 
  67:Core/Src/usart.c ****   /* USER CODE END USART1_MspInit 0 */
  68:Core/Src/usart.c ****     /* USART1 clock enable */
  69:Core/Src/usart.c ****     __HAL_RCC_USART1_CLK_ENABLE();
  70:Core/Src/usart.c **** 
  71:Core/Src/usart.c ****     __HAL_RCC_GPIOA_CLK_ENABLE();
  72:Core/Src/usart.c ****     /**USART1 GPIO Configuration
  73:Core/Src/usart.c ****     PA9     ------> USART1_TX
  74:Core/Src/usart.c ****     PA10     ------> USART1_RX
  75:Core/Src/usart.c ****     */
  76:Core/Src/usart.c ****     GPIO_InitStruct.Pin = GPIO_PIN_9;
  77:Core/Src/usart.c ****     GPIO_InitStruct.Mode = GPIO_MODE_AF_PP;
  78:Core/Src/usart.c ****     GPIO_InitStruct.Speed = GPIO_SPEED_FREQ_HIGH;
  79:Core/Src/usart.c ****     HAL_GPIO_Init(GPIOA, &GPIO_InitStruct);
  80:Core/Src/usart.c **** 
  81:Core/Src/usart.c ****     GPIO_InitStruct.Pin = GPIO_PIN_10;
  82:Core/Src/usart.c ****     GPIO_InitStruct.Mode = GPIO_MODE_INPUT;
  83:Core/Src/usart.c ****     GPIO_InitStruct.Pull = GPIO_NOPULL;
  84:Core/Src/usart.c ****     HAL_GPIO_Init(GPIOA, &GPIO_InitStruct);
  85:Core/Src/usart.c **** 
  86:Core/Src/usart.c ****   /* USER CODE BEGIN USART1_MspInit 1 */
  87:Core/Src/usart.c **** 
  88:Core/Src/usart.c ****   /* USER CODE END USART1_MspInit 1 */
  89:Core/Src/usart.c ****   }
  90:Core/Src/usart.c **** }
 124              		.loc 1 90 1 view .LVU30
 125 0016 06B0     		add	sp, sp, #24
 126              		.cfi_remember_state
 127              		.cfi_def_cfa_offset 8
 128              		@ sp needed
 129 0018 10BD     		pop	{r4, pc}
 130              	.LVL4:
 131              	.L10:
 132              		.cfi_restore_state
  69:Core/Src/usart.c **** 
 133              		.loc 1 69 5 is_stmt 1 view .LVU31
 134              	.LBB2:
  69:Core/Src/usart.c **** 
 135              		.loc 1 69 5 view .LVU32
  69:Core/Src/usart.c **** 
 136              		.loc 1 69 5 view .LVU33
 137 001a 03F55843 		add	r3, r3, #55296
ARM GAS  /tmp/cclJ0eKG.s 			page 5


 138 001e 9A69     		ldr	r2, [r3, #24]
 139 0020 42F48042 		orr	r2, r2, #16384
 140 0024 9A61     		str	r2, [r3, #24]
  69:Core/Src/usart.c **** 
 141              		.loc 1 69 5 view .LVU34
 142 0026 9A69     		ldr	r2, [r3, #24]
 143 0028 02F48042 		and	r2, r2, #16384
 144 002c 0092     		str	r2, [sp]
  69:Core/Src/usart.c **** 
 145              		.loc 1 69 5 view .LVU35
 146 002e 009A     		ldr	r2, [sp]
 147              	.LBE2:
  69:Core/Src/usart.c **** 
 148              		.loc 1 69 5 view .LVU36
  71:Core/Src/usart.c ****     /**USART1 GPIO Configuration
 149              		.loc 1 71 5 view .LVU37
 150              	.LBB3:
  71:Core/Src/usart.c ****     /**USART1 GPIO Configuration
 151              		.loc 1 71 5 view .LVU38
  71:Core/Src/usart.c ****     /**USART1 GPIO Configuration
 152              		.loc 1 71 5 view .LVU39
 153 0030 9A69     		ldr	r2, [r3, #24]
 154 0032 42F00402 		orr	r2, r2, #4
 155 0036 9A61     		str	r2, [r3, #24]
  71:Core/Src/usart.c ****     /**USART1 GPIO Configuration
 156              		.loc 1 71 5 view .LVU40
 157 0038 9B69     		ldr	r3, [r3, #24]
 158 003a 03F00403 		and	r3, r3, #4
 159 003e 0193     		str	r3, [sp, #4]
  71:Core/Src/usart.c ****     /**USART1 GPIO Configuration
 160              		.loc 1 71 5 view .LVU41
 161 0040 019B     		ldr	r3, [sp, #4]
 162              	.LBE3:
  71:Core/Src/usart.c ****     /**USART1 GPIO Configuration
 163              		.loc 1 71 5 view .LVU42
  76:Core/Src/usart.c ****     GPIO_InitStruct.Mode = GPIO_MODE_AF_PP;
 164              		.loc 1 76 5 view .LVU43
  76:Core/Src/usart.c ****     GPIO_InitStruct.Mode = GPIO_MODE_AF_PP;
 165              		.loc 1 76 25 is_stmt 0 view .LVU44
 166 0042 4FF40073 		mov	r3, #512
 167 0046 0293     		str	r3, [sp, #8]
  77:Core/Src/usart.c ****     GPIO_InitStruct.Speed = GPIO_SPEED_FREQ_HIGH;
 168              		.loc 1 77 5 is_stmt 1 view .LVU45
  77:Core/Src/usart.c ****     GPIO_InitStruct.Speed = GPIO_SPEED_FREQ_HIGH;
 169              		.loc 1 77 26 is_stmt 0 view .LVU46
 170 0048 0223     		movs	r3, #2
 171 004a 0393     		str	r3, [sp, #12]
  78:Core/Src/usart.c ****     HAL_GPIO_Init(GPIOA, &GPIO_InitStruct);
 172              		.loc 1 78 5 is_stmt 1 view .LVU47
  78:Core/Src/usart.c ****     HAL_GPIO_Init(GPIOA, &GPIO_InitStruct);
 173              		.loc 1 78 27 is_stmt 0 view .LVU48
 174 004c 0323     		movs	r3, #3
 175 004e 0593     		str	r3, [sp, #20]
  79:Core/Src/usart.c **** 
 176              		.loc 1 79 5 is_stmt 1 view .LVU49
 177 0050 084C     		ldr	r4, .L11+4
 178 0052 02A9     		add	r1, sp, #8
ARM GAS  /tmp/cclJ0eKG.s 			page 6


 179 0054 2046     		mov	r0, r4
 180              	.LVL5:
  79:Core/Src/usart.c **** 
 181              		.loc 1 79 5 is_stmt 0 view .LVU50
 182 0056 FFF7FEFF 		bl	HAL_GPIO_Init
 183              	.LVL6:
  81:Core/Src/usart.c ****     GPIO_InitStruct.Mode = GPIO_MODE_INPUT;
 184              		.loc 1 81 5 is_stmt 1 view .LVU51
  81:Core/Src/usart.c ****     GPIO_InitStruct.Mode = GPIO_MODE_INPUT;
 185              		.loc 1 81 25 is_stmt 0 view .LVU52
 186 005a 4FF48063 		mov	r3, #1024
 187 005e 0293     		str	r3, [sp, #8]
  82:Core/Src/usart.c ****     GPIO_InitStruct.Pull = GPIO_NOPULL;
 188              		.loc 1 82 5 is_stmt 1 view .LVU53
  82:Core/Src/usart.c ****     GPIO_InitStruct.Pull = GPIO_NOPULL;
 189              		.loc 1 82 26 is_stmt 0 view .LVU54
 190 0060 0023     		movs	r3, #0
 191 0062 0393     		str	r3, [sp, #12]
  83:Core/Src/usart.c ****     HAL_GPIO_Init(GPIOA, &GPIO_InitStruct);
 192              		.loc 1 83 5 is_stmt 1 view .LVU55
  83:Core/Src/usart.c ****     HAL_GPIO_Init(GPIOA, &GPIO_InitStruct);
 193              		.loc 1 83 26 is_stmt 0 view .LVU56
 194 0064 0493     		str	r3, [sp, #16]
  84:Core/Src/usart.c **** 
 195              		.loc 1 84 5 is_stmt 1 view .LVU57
 196 0066 02A9     		add	r1, sp, #8
 197 0068 2046     		mov	r0, r4
 198 006a FFF7FEFF 		bl	HAL_GPIO_Init
 199              	.LVL7:
 200              		.loc 1 90 1 is_stmt 0 view .LVU58
 201 006e D2E7     		b	.L7
 202              	.L12:
 203              		.align	2
 204              	.L11:
 205 0070 00380140 		.word	1073821696
 206 0074 00080140 		.word	1073809408
 207              		.cfi_endproc
 208              	.LFE66:
 210              		.section	.text.HAL_UART_MspDeInit,"ax",%progbits
 211              		.align	1
 212              		.global	HAL_UART_MspDeInit
 213              		.syntax unified
 214              		.thumb
 215              		.thumb_func
 217              	HAL_UART_MspDeInit:
 218              	.LVL8:
 219              	.LFB67:
  91:Core/Src/usart.c **** 
  92:Core/Src/usart.c **** void HAL_UART_MspDeInit(UART_HandleTypeDef* uartHandle)
  93:Core/Src/usart.c **** {
 220              		.loc 1 93 1 is_stmt 1 view -0
 221              		.cfi_startproc
 222              		@ args = 0, pretend = 0, frame = 0
 223              		@ frame_needed = 0, uses_anonymous_args = 0
 224              		.loc 1 93 1 is_stmt 0 view .LVU60
 225 0000 08B5     		push	{r3, lr}
 226              		.cfi_def_cfa_offset 8
ARM GAS  /tmp/cclJ0eKG.s 			page 7


 227              		.cfi_offset 3, -8
 228              		.cfi_offset 14, -4
  94:Core/Src/usart.c **** 
  95:Core/Src/usart.c ****   if(uartHandle->Instance==USART1)
 229              		.loc 1 95 3 is_stmt 1 view .LVU61
 230              		.loc 1 95 16 is_stmt 0 view .LVU62
 231 0002 0268     		ldr	r2, [r0]
 232              		.loc 1 95 5 view .LVU63
 233 0004 074B     		ldr	r3, .L17
 234 0006 9A42     		cmp	r2, r3
 235 0008 00D0     		beq	.L16
 236              	.LVL9:
 237              	.L13:
  96:Core/Src/usart.c ****   {
  97:Core/Src/usart.c ****   /* USER CODE BEGIN USART1_MspDeInit 0 */
  98:Core/Src/usart.c **** 
  99:Core/Src/usart.c ****   /* USER CODE END USART1_MspDeInit 0 */
 100:Core/Src/usart.c ****     /* Peripheral clock disable */
 101:Core/Src/usart.c ****     __HAL_RCC_USART1_CLK_DISABLE();
 102:Core/Src/usart.c **** 
 103:Core/Src/usart.c ****     /**USART1 GPIO Configuration
 104:Core/Src/usart.c ****     PA9     ------> USART1_TX
 105:Core/Src/usart.c ****     PA10     ------> USART1_RX
 106:Core/Src/usart.c ****     */
 107:Core/Src/usart.c ****     HAL_GPIO_DeInit(GPIOA, GPIO_PIN_9|GPIO_PIN_10);
 108:Core/Src/usart.c **** 
 109:Core/Src/usart.c ****   /* USER CODE BEGIN USART1_MspDeInit 1 */
 110:Core/Src/usart.c **** 
 111:Core/Src/usart.c ****   /* USER CODE END USART1_MspDeInit 1 */
 112:Core/Src/usart.c ****   }
 113:Core/Src/usart.c **** }
 238              		.loc 1 113 1 view .LVU64
 239 000a 08BD     		pop	{r3, pc}
 240              	.LVL10:
 241              	.L16:
 101:Core/Src/usart.c **** 
 242              		.loc 1 101 5 is_stmt 1 view .LVU65
 243 000c 064A     		ldr	r2, .L17+4
 244 000e 9369     		ldr	r3, [r2, #24]
 245 0010 23F48043 		bic	r3, r3, #16384
 246 0014 9361     		str	r3, [r2, #24]
 107:Core/Src/usart.c **** 
 247              		.loc 1 107 5 view .LVU66
 248 0016 4FF4C061 		mov	r1, #1536
 249 001a 0448     		ldr	r0, .L17+8
 250              	.LVL11:
 107:Core/Src/usart.c **** 
 251              		.loc 1 107 5 is_stmt 0 view .LVU67
 252 001c FFF7FEFF 		bl	HAL_GPIO_DeInit
 253              	.LVL12:
 254              		.loc 1 113 1 view .LVU68
 255 0020 F3E7     		b	.L13
 256              	.L18:
 257 0022 00BF     		.align	2
 258              	.L17:
 259 0024 00380140 		.word	1073821696
 260 0028 00100240 		.word	1073876992
ARM GAS  /tmp/cclJ0eKG.s 			page 8


 261 002c 00080140 		.word	1073809408
 262              		.cfi_endproc
 263              	.LFE67:
 265              		.global	huart1
 266              		.section	.bss.huart1,"aw",%nobits
 267              		.align	2
 270              	huart1:
 271 0000 00000000 		.space	72
 271      00000000 
 271      00000000 
 271      00000000 
 271      00000000 
 272              		.text
 273              	.Letext0:
 274              		.file 2 "/home/sarthak/.config/Code/User/globalStorage/bmd.stm32-for-vscode/@xpack-dev-tools/arm-n
 275              		.file 3 "/home/sarthak/.config/Code/User/globalStorage/bmd.stm32-for-vscode/@xpack-dev-tools/arm-n
 276              		.file 4 "Drivers/CMSIS/Device/ST/STM32F1xx/Include/stm32f103x6.h"
 277              		.file 5 "Drivers/STM32F1xx_HAL_Driver/Inc/stm32f1xx_hal_def.h"
 278              		.file 6 "Drivers/STM32F1xx_HAL_Driver/Inc/stm32f1xx_hal_gpio.h"
 279              		.file 7 "Drivers/STM32F1xx_HAL_Driver/Inc/stm32f1xx_hal_dma.h"
 280              		.file 8 "Drivers/STM32F1xx_HAL_Driver/Inc/stm32f1xx_hal_uart.h"
 281              		.file 9 "Core/Inc/usart.h"
 282              		.file 10 "Core/Inc/main.h"
ARM GAS  /tmp/cclJ0eKG.s 			page 9

