ARM GAS  /tmp/cc5DoC4V.s 			page 1


   1              		.cpu cortex-m3
   2              		.eabi_attribute 20, 1
   3              		.eabi_attribute 21, 1
   4              		.eabi_attribute 23, 3
   5              		.eabi_attribute 24, 1
   6              		.eabi_attribute 25, 1
   7              		.eabi_attribute 26, 1
   8              		.eabi_attribute 30, 1
   9              		.eabi_attribute 34, 1
  10              		.eabi_attribute 18, 4
  11              		.file	"i2c.c"
  12              		.text
  13              	.Ltext0:
  14              		.cfi_sections	.debug_frame
  15              		.section	.text.MX_I2C1_Init,"ax",%progbits
  16              		.align	1
  17              		.global	MX_I2C1_Init
  18              		.arch armv7-m
  19              		.syntax unified
  20              		.thumb
  21              		.thumb_func
  22              		.fpu softvfp
  24              	MX_I2C1_Init:
  25              	.LFB65:
  26              		.file 1 "Core/Src/i2c.c"
   1:Core/Src/i2c.c **** /* USER CODE BEGIN Header */
   2:Core/Src/i2c.c **** /**
   3:Core/Src/i2c.c ****   ******************************************************************************
   4:Core/Src/i2c.c ****   * @file    i2c.c
   5:Core/Src/i2c.c ****   * @brief   This file provides code for the configuration
   6:Core/Src/i2c.c ****   *          of the I2C instances.
   7:Core/Src/i2c.c ****   ******************************************************************************
   8:Core/Src/i2c.c ****   * @attention
   9:Core/Src/i2c.c ****   *
  10:Core/Src/i2c.c ****   * Copyright (c) 2024 STMicroelectronics.
  11:Core/Src/i2c.c ****   * All rights reserved.
  12:Core/Src/i2c.c ****   *
  13:Core/Src/i2c.c ****   * This software is licensed under terms that can be found in the LICENSE file
  14:Core/Src/i2c.c ****   * in the root directory of this software component.
  15:Core/Src/i2c.c ****   * If no LICENSE file comes with this software, it is provided AS-IS.
  16:Core/Src/i2c.c ****   *
  17:Core/Src/i2c.c ****   ******************************************************************************
  18:Core/Src/i2c.c ****   */
  19:Core/Src/i2c.c **** /* USER CODE END Header */
  20:Core/Src/i2c.c **** /* Includes ------------------------------------------------------------------*/
  21:Core/Src/i2c.c **** #include "i2c.h"
  22:Core/Src/i2c.c **** 
  23:Core/Src/i2c.c **** /* USER CODE BEGIN 0 */
  24:Core/Src/i2c.c **** 
  25:Core/Src/i2c.c **** /* USER CODE END 0 */
  26:Core/Src/i2c.c **** 
  27:Core/Src/i2c.c **** I2C_HandleTypeDef hi2c1;
  28:Core/Src/i2c.c **** 
  29:Core/Src/i2c.c **** /* I2C1 init function */
  30:Core/Src/i2c.c **** void MX_I2C1_Init(void)
  31:Core/Src/i2c.c **** {
  27              		.loc 1 31 1 view -0
ARM GAS  /tmp/cc5DoC4V.s 			page 2


  28              		.cfi_startproc
  29              		@ args = 0, pretend = 0, frame = 0
  30              		@ frame_needed = 0, uses_anonymous_args = 0
  31 0000 08B5     		push	{r3, lr}
  32              	.LCFI0:
  33              		.cfi_def_cfa_offset 8
  34              		.cfi_offset 3, -8
  35              		.cfi_offset 14, -4
  32:Core/Src/i2c.c **** 
  33:Core/Src/i2c.c ****   /* USER CODE BEGIN I2C1_Init 0 */
  34:Core/Src/i2c.c **** 
  35:Core/Src/i2c.c ****   /* USER CODE END I2C1_Init 0 */
  36:Core/Src/i2c.c **** 
  37:Core/Src/i2c.c ****   /* USER CODE BEGIN I2C1_Init 1 */
  38:Core/Src/i2c.c **** 
  39:Core/Src/i2c.c ****   /* USER CODE END I2C1_Init 1 */
  40:Core/Src/i2c.c ****   hi2c1.Instance = I2C1;
  36              		.loc 1 40 3 view .LVU1
  37              		.loc 1 40 18 is_stmt 0 view .LVU2
  38 0002 0B48     		ldr	r0, .L5
  39 0004 0B4B     		ldr	r3, .L5+4
  40 0006 0360     		str	r3, [r0]
  41:Core/Src/i2c.c ****   hi2c1.Init.ClockSpeed = 100000;
  41              		.loc 1 41 3 is_stmt 1 view .LVU3
  42              		.loc 1 41 25 is_stmt 0 view .LVU4
  43 0008 0B4B     		ldr	r3, .L5+8
  44 000a 4360     		str	r3, [r0, #4]
  42:Core/Src/i2c.c ****   hi2c1.Init.DutyCycle = I2C_DUTYCYCLE_2;
  45              		.loc 1 42 3 is_stmt 1 view .LVU5
  46              		.loc 1 42 24 is_stmt 0 view .LVU6
  47 000c 0023     		movs	r3, #0
  48 000e 8360     		str	r3, [r0, #8]
  43:Core/Src/i2c.c ****   hi2c1.Init.OwnAddress1 = 0;
  49              		.loc 1 43 3 is_stmt 1 view .LVU7
  50              		.loc 1 43 26 is_stmt 0 view .LVU8
  51 0010 C360     		str	r3, [r0, #12]
  44:Core/Src/i2c.c ****   hi2c1.Init.AddressingMode = I2C_ADDRESSINGMODE_7BIT;
  52              		.loc 1 44 3 is_stmt 1 view .LVU9
  53              		.loc 1 44 29 is_stmt 0 view .LVU10
  54 0012 4FF48042 		mov	r2, #16384
  55 0016 0261     		str	r2, [r0, #16]
  45:Core/Src/i2c.c ****   hi2c1.Init.DualAddressMode = I2C_DUALADDRESS_DISABLE;
  56              		.loc 1 45 3 is_stmt 1 view .LVU11
  57              		.loc 1 45 30 is_stmt 0 view .LVU12
  58 0018 4361     		str	r3, [r0, #20]
  46:Core/Src/i2c.c ****   hi2c1.Init.OwnAddress2 = 0;
  59              		.loc 1 46 3 is_stmt 1 view .LVU13
  60              		.loc 1 46 26 is_stmt 0 view .LVU14
  61 001a 8361     		str	r3, [r0, #24]
  47:Core/Src/i2c.c ****   hi2c1.Init.GeneralCallMode = I2C_GENERALCALL_DISABLE;
  62              		.loc 1 47 3 is_stmt 1 view .LVU15
  63              		.loc 1 47 30 is_stmt 0 view .LVU16
  64 001c C361     		str	r3, [r0, #28]
  48:Core/Src/i2c.c ****   hi2c1.Init.NoStretchMode = I2C_NOSTRETCH_DISABLE;
  65              		.loc 1 48 3 is_stmt 1 view .LVU17
  66              		.loc 1 48 28 is_stmt 0 view .LVU18
  67 001e 0362     		str	r3, [r0, #32]
ARM GAS  /tmp/cc5DoC4V.s 			page 3


  49:Core/Src/i2c.c ****   if (HAL_I2C_Init(&hi2c1) != HAL_OK)
  68              		.loc 1 49 3 is_stmt 1 view .LVU19
  69              		.loc 1 49 7 is_stmt 0 view .LVU20
  70 0020 FFF7FEFF 		bl	HAL_I2C_Init
  71              	.LVL0:
  72              		.loc 1 49 6 view .LVU21
  73 0024 00B9     		cbnz	r0, .L4
  74              	.L1:
  50:Core/Src/i2c.c ****   {
  51:Core/Src/i2c.c ****     Error_Handler();
  52:Core/Src/i2c.c ****   }
  53:Core/Src/i2c.c ****   /* USER CODE BEGIN I2C1_Init 2 */
  54:Core/Src/i2c.c **** 
  55:Core/Src/i2c.c ****   /* USER CODE END I2C1_Init 2 */
  56:Core/Src/i2c.c **** 
  57:Core/Src/i2c.c **** }
  75              		.loc 1 57 1 view .LVU22
  76 0026 08BD     		pop	{r3, pc}
  77              	.L4:
  51:Core/Src/i2c.c ****   }
  78              		.loc 1 51 5 is_stmt 1 view .LVU23
  79 0028 FFF7FEFF 		bl	Error_Handler
  80              	.LVL1:
  81              		.loc 1 57 1 is_stmt 0 view .LVU24
  82 002c FBE7     		b	.L1
  83              	.L6:
  84 002e 00BF     		.align	2
  85              	.L5:
  86 0030 00000000 		.word	.LANCHOR0
  87 0034 00540040 		.word	1073763328
  88 0038 A0860100 		.word	100000
  89              		.cfi_endproc
  90              	.LFE65:
  92              		.section	.text.HAL_I2C_MspInit,"ax",%progbits
  93              		.align	1
  94              		.global	HAL_I2C_MspInit
  95              		.syntax unified
  96              		.thumb
  97              		.thumb_func
  98              		.fpu softvfp
 100              	HAL_I2C_MspInit:
 101              	.LVL2:
 102              	.LFB66:
  58:Core/Src/i2c.c **** 
  59:Core/Src/i2c.c **** void HAL_I2C_MspInit(I2C_HandleTypeDef* i2cHandle)
  60:Core/Src/i2c.c **** {
 103              		.loc 1 60 1 is_stmt 1 view -0
 104              		.cfi_startproc
 105              		@ args = 0, pretend = 0, frame = 24
 106              		@ frame_needed = 0, uses_anonymous_args = 0
 107              		.loc 1 60 1 is_stmt 0 view .LVU26
 108 0000 10B5     		push	{r4, lr}
 109              	.LCFI1:
 110              		.cfi_def_cfa_offset 8
 111              		.cfi_offset 4, -8
 112              		.cfi_offset 14, -4
 113 0002 86B0     		sub	sp, sp, #24
ARM GAS  /tmp/cc5DoC4V.s 			page 4


 114              	.LCFI2:
 115              		.cfi_def_cfa_offset 32
  61:Core/Src/i2c.c **** 
  62:Core/Src/i2c.c ****   GPIO_InitTypeDef GPIO_InitStruct = {0};
 116              		.loc 1 62 3 is_stmt 1 view .LVU27
 117              		.loc 1 62 20 is_stmt 0 view .LVU28
 118 0004 0023     		movs	r3, #0
 119 0006 0293     		str	r3, [sp, #8]
 120 0008 0393     		str	r3, [sp, #12]
 121 000a 0493     		str	r3, [sp, #16]
 122 000c 0593     		str	r3, [sp, #20]
  63:Core/Src/i2c.c ****   if(i2cHandle->Instance==I2C1)
 123              		.loc 1 63 3 is_stmt 1 view .LVU29
 124              		.loc 1 63 15 is_stmt 0 view .LVU30
 125 000e 0268     		ldr	r2, [r0]
 126              		.loc 1 63 5 view .LVU31
 127 0010 154B     		ldr	r3, .L11
 128 0012 9A42     		cmp	r2, r3
 129 0014 01D0     		beq	.L10
 130              	.LVL3:
 131              	.L7:
  64:Core/Src/i2c.c ****   {
  65:Core/Src/i2c.c ****   /* USER CODE BEGIN I2C1_MspInit 0 */
  66:Core/Src/i2c.c **** 
  67:Core/Src/i2c.c ****   /* USER CODE END I2C1_MspInit 0 */
  68:Core/Src/i2c.c **** 
  69:Core/Src/i2c.c ****     __HAL_RCC_GPIOB_CLK_ENABLE();
  70:Core/Src/i2c.c ****     /**I2C1 GPIO Configuration
  71:Core/Src/i2c.c ****     PB8     ------> I2C1_SCL
  72:Core/Src/i2c.c ****     PB9     ------> I2C1_SDA
  73:Core/Src/i2c.c ****     */
  74:Core/Src/i2c.c ****     GPIO_InitStruct.Pin = GPIO_PIN_8|GPIO_PIN_9;
  75:Core/Src/i2c.c ****     GPIO_InitStruct.Mode = GPIO_MODE_AF_OD;
  76:Core/Src/i2c.c ****     GPIO_InitStruct.Pull = GPIO_NOPULL;
  77:Core/Src/i2c.c ****     GPIO_InitStruct.Speed = GPIO_SPEED_FREQ_HIGH;
  78:Core/Src/i2c.c ****     HAL_GPIO_Init(GPIOB, &GPIO_InitStruct);
  79:Core/Src/i2c.c **** 
  80:Core/Src/i2c.c ****     __HAL_AFIO_REMAP_I2C1_ENABLE();
  81:Core/Src/i2c.c **** 
  82:Core/Src/i2c.c ****     /* I2C1 clock enable */
  83:Core/Src/i2c.c ****     __HAL_RCC_I2C1_CLK_ENABLE();
  84:Core/Src/i2c.c ****   /* USER CODE BEGIN I2C1_MspInit 1 */
  85:Core/Src/i2c.c **** 
  86:Core/Src/i2c.c ****   /* USER CODE END I2C1_MspInit 1 */
  87:Core/Src/i2c.c ****   }
  88:Core/Src/i2c.c **** }
 132              		.loc 1 88 1 view .LVU32
 133 0016 06B0     		add	sp, sp, #24
 134              	.LCFI3:
 135              		.cfi_remember_state
 136              		.cfi_def_cfa_offset 8
 137              		@ sp needed
 138 0018 10BD     		pop	{r4, pc}
 139              	.LVL4:
 140              	.L10:
 141              	.LCFI4:
 142              		.cfi_restore_state
ARM GAS  /tmp/cc5DoC4V.s 			page 5


  69:Core/Src/i2c.c ****     /**I2C1 GPIO Configuration
 143              		.loc 1 69 5 is_stmt 1 view .LVU33
 144              	.LBB2:
  69:Core/Src/i2c.c ****     /**I2C1 GPIO Configuration
 145              		.loc 1 69 5 view .LVU34
  69:Core/Src/i2c.c ****     /**I2C1 GPIO Configuration
 146              		.loc 1 69 5 view .LVU35
 147 001a 144C     		ldr	r4, .L11+4
 148 001c A369     		ldr	r3, [r4, #24]
 149 001e 43F00803 		orr	r3, r3, #8
 150 0022 A361     		str	r3, [r4, #24]
  69:Core/Src/i2c.c ****     /**I2C1 GPIO Configuration
 151              		.loc 1 69 5 view .LVU36
 152 0024 A369     		ldr	r3, [r4, #24]
 153 0026 03F00803 		and	r3, r3, #8
 154 002a 0093     		str	r3, [sp]
  69:Core/Src/i2c.c ****     /**I2C1 GPIO Configuration
 155              		.loc 1 69 5 view .LVU37
 156 002c 009B     		ldr	r3, [sp]
 157              	.LBE2:
  69:Core/Src/i2c.c ****     /**I2C1 GPIO Configuration
 158              		.loc 1 69 5 view .LVU38
  74:Core/Src/i2c.c ****     GPIO_InitStruct.Mode = GPIO_MODE_AF_OD;
 159              		.loc 1 74 5 view .LVU39
  74:Core/Src/i2c.c ****     GPIO_InitStruct.Mode = GPIO_MODE_AF_OD;
 160              		.loc 1 74 25 is_stmt 0 view .LVU40
 161 002e 4FF44073 		mov	r3, #768
 162 0032 0293     		str	r3, [sp, #8]
  75:Core/Src/i2c.c ****     GPIO_InitStruct.Pull = GPIO_NOPULL;
 163              		.loc 1 75 5 is_stmt 1 view .LVU41
  75:Core/Src/i2c.c ****     GPIO_InitStruct.Pull = GPIO_NOPULL;
 164              		.loc 1 75 26 is_stmt 0 view .LVU42
 165 0034 1223     		movs	r3, #18
 166 0036 0393     		str	r3, [sp, #12]
  76:Core/Src/i2c.c ****     GPIO_InitStruct.Speed = GPIO_SPEED_FREQ_HIGH;
 167              		.loc 1 76 5 is_stmt 1 view .LVU43
  77:Core/Src/i2c.c ****     HAL_GPIO_Init(GPIOB, &GPIO_InitStruct);
 168              		.loc 1 77 5 view .LVU44
  77:Core/Src/i2c.c ****     HAL_GPIO_Init(GPIOB, &GPIO_InitStruct);
 169              		.loc 1 77 27 is_stmt 0 view .LVU45
 170 0038 0323     		movs	r3, #3
 171 003a 0593     		str	r3, [sp, #20]
  78:Core/Src/i2c.c **** 
 172              		.loc 1 78 5 is_stmt 1 view .LVU46
 173 003c 02A9     		add	r1, sp, #8
 174 003e 0C48     		ldr	r0, .L11+8
 175              	.LVL5:
  78:Core/Src/i2c.c **** 
 176              		.loc 1 78 5 is_stmt 0 view .LVU47
 177 0040 FFF7FEFF 		bl	HAL_GPIO_Init
 178              	.LVL6:
  80:Core/Src/i2c.c **** 
 179              		.loc 1 80 5 is_stmt 1 view .LVU48
 180              	.LBB3:
  80:Core/Src/i2c.c **** 
 181              		.loc 1 80 5 view .LVU49
 182 0044 0B4A     		ldr	r2, .L11+12
ARM GAS  /tmp/cc5DoC4V.s 			page 6


 183 0046 5368     		ldr	r3, [r2, #4]
 184              	.LVL7:
  80:Core/Src/i2c.c **** 
 185              		.loc 1 80 5 view .LVU50
  80:Core/Src/i2c.c **** 
 186              		.loc 1 80 5 view .LVU51
 187 0048 43F0E063 		orr	r3, r3, #117440512
 188              	.LVL8:
  80:Core/Src/i2c.c **** 
 189              		.loc 1 80 5 is_stmt 0 view .LVU52
 190 004c 43F00203 		orr	r3, r3, #2
 191              	.LVL9:
  80:Core/Src/i2c.c **** 
 192              		.loc 1 80 5 is_stmt 1 view .LVU53
 193 0050 5360     		str	r3, [r2, #4]
 194              	.LBE3:
  80:Core/Src/i2c.c **** 
 195              		.loc 1 80 5 view .LVU54
  83:Core/Src/i2c.c ****   /* USER CODE BEGIN I2C1_MspInit 1 */
 196              		.loc 1 83 5 view .LVU55
 197              	.LBB4:
  83:Core/Src/i2c.c ****   /* USER CODE BEGIN I2C1_MspInit 1 */
 198              		.loc 1 83 5 view .LVU56
  83:Core/Src/i2c.c ****   /* USER CODE BEGIN I2C1_MspInit 1 */
 199              		.loc 1 83 5 view .LVU57
 200 0052 E369     		ldr	r3, [r4, #28]
 201              	.LVL10:
  83:Core/Src/i2c.c ****   /* USER CODE BEGIN I2C1_MspInit 1 */
 202              		.loc 1 83 5 is_stmt 0 view .LVU58
 203 0054 43F40013 		orr	r3, r3, #2097152
 204 0058 E361     		str	r3, [r4, #28]
 205              	.LVL11:
  83:Core/Src/i2c.c ****   /* USER CODE BEGIN I2C1_MspInit 1 */
 206              		.loc 1 83 5 is_stmt 1 view .LVU59
 207 005a E369     		ldr	r3, [r4, #28]
 208 005c 03F40013 		and	r3, r3, #2097152
 209 0060 0193     		str	r3, [sp, #4]
  83:Core/Src/i2c.c ****   /* USER CODE BEGIN I2C1_MspInit 1 */
 210              		.loc 1 83 5 view .LVU60
 211 0062 019B     		ldr	r3, [sp, #4]
 212              	.LBE4:
  83:Core/Src/i2c.c ****   /* USER CODE BEGIN I2C1_MspInit 1 */
 213              		.loc 1 83 5 view .LVU61
 214              		.loc 1 88 1 is_stmt 0 view .LVU62
 215 0064 D7E7     		b	.L7
 216              	.L12:
 217 0066 00BF     		.align	2
 218              	.L11:
 219 0068 00540040 		.word	1073763328
 220 006c 00100240 		.word	1073876992
 221 0070 000C0140 		.word	1073810432
 222 0074 00000140 		.word	1073807360
 223              		.cfi_endproc
 224              	.LFE66:
 226              		.section	.text.HAL_I2C_MspDeInit,"ax",%progbits
 227              		.align	1
 228              		.global	HAL_I2C_MspDeInit
ARM GAS  /tmp/cc5DoC4V.s 			page 7


 229              		.syntax unified
 230              		.thumb
 231              		.thumb_func
 232              		.fpu softvfp
 234              	HAL_I2C_MspDeInit:
 235              	.LVL12:
 236              	.LFB67:
  89:Core/Src/i2c.c **** 
  90:Core/Src/i2c.c **** void HAL_I2C_MspDeInit(I2C_HandleTypeDef* i2cHandle)
  91:Core/Src/i2c.c **** {
 237              		.loc 1 91 1 is_stmt 1 view -0
 238              		.cfi_startproc
 239              		@ args = 0, pretend = 0, frame = 0
 240              		@ frame_needed = 0, uses_anonymous_args = 0
  92:Core/Src/i2c.c **** 
  93:Core/Src/i2c.c ****   if(i2cHandle->Instance==I2C1)
 241              		.loc 1 93 3 view .LVU64
 242              		.loc 1 93 15 is_stmt 0 view .LVU65
 243 0000 0268     		ldr	r2, [r0]
 244              		.loc 1 93 5 view .LVU66
 245 0002 0B4B     		ldr	r3, .L20
 246 0004 9A42     		cmp	r2, r3
 247 0006 00D0     		beq	.L19
 248 0008 7047     		bx	lr
 249              	.L19:
  91:Core/Src/i2c.c **** 
 250              		.loc 1 91 1 view .LVU67
 251 000a 10B5     		push	{r4, lr}
 252              	.LCFI5:
 253              		.cfi_def_cfa_offset 8
 254              		.cfi_offset 4, -8
 255              		.cfi_offset 14, -4
  94:Core/Src/i2c.c ****   {
  95:Core/Src/i2c.c ****   /* USER CODE BEGIN I2C1_MspDeInit 0 */
  96:Core/Src/i2c.c **** 
  97:Core/Src/i2c.c ****   /* USER CODE END I2C1_MspDeInit 0 */
  98:Core/Src/i2c.c ****     /* Peripheral clock disable */
  99:Core/Src/i2c.c ****     __HAL_RCC_I2C1_CLK_DISABLE();
 256              		.loc 1 99 5 is_stmt 1 view .LVU68
 257 000c 094A     		ldr	r2, .L20+4
 258 000e D369     		ldr	r3, [r2, #28]
 259 0010 23F40013 		bic	r3, r3, #2097152
 260 0014 D361     		str	r3, [r2, #28]
 100:Core/Src/i2c.c **** 
 101:Core/Src/i2c.c ****     /**I2C1 GPIO Configuration
 102:Core/Src/i2c.c ****     PB8     ------> I2C1_SCL
 103:Core/Src/i2c.c ****     PB9     ------> I2C1_SDA
 104:Core/Src/i2c.c ****     */
 105:Core/Src/i2c.c ****     HAL_GPIO_DeInit(GPIOB, GPIO_PIN_8);
 261              		.loc 1 105 5 view .LVU69
 262 0016 084C     		ldr	r4, .L20+8
 263 0018 4FF48071 		mov	r1, #256
 264 001c 2046     		mov	r0, r4
 265              	.LVL13:
 266              		.loc 1 105 5 is_stmt 0 view .LVU70
 267 001e FFF7FEFF 		bl	HAL_GPIO_DeInit
 268              	.LVL14:
ARM GAS  /tmp/cc5DoC4V.s 			page 8


 106:Core/Src/i2c.c **** 
 107:Core/Src/i2c.c ****     HAL_GPIO_DeInit(GPIOB, GPIO_PIN_9);
 269              		.loc 1 107 5 is_stmt 1 view .LVU71
 270 0022 4FF40071 		mov	r1, #512
 271 0026 2046     		mov	r0, r4
 272 0028 FFF7FEFF 		bl	HAL_GPIO_DeInit
 273              	.LVL15:
 108:Core/Src/i2c.c **** 
 109:Core/Src/i2c.c ****   /* USER CODE BEGIN I2C1_MspDeInit 1 */
 110:Core/Src/i2c.c **** 
 111:Core/Src/i2c.c ****   /* USER CODE END I2C1_MspDeInit 1 */
 112:Core/Src/i2c.c ****   }
 113:Core/Src/i2c.c **** }
 274              		.loc 1 113 1 is_stmt 0 view .LVU72
 275 002c 10BD     		pop	{r4, pc}
 276              	.L21:
 277 002e 00BF     		.align	2
 278              	.L20:
 279 0030 00540040 		.word	1073763328
 280 0034 00100240 		.word	1073876992
 281 0038 000C0140 		.word	1073810432
 282              		.cfi_endproc
 283              	.LFE67:
 285              		.global	hi2c1
 286              		.section	.bss.hi2c1,"aw",%nobits
 287              		.align	2
 288              		.set	.LANCHOR0,. + 0
 291              	hi2c1:
 292 0000 00000000 		.space	84
 292      00000000 
 292      00000000 
 292      00000000 
 292      00000000 
 293              		.text
 294              	.Letext0:
 295              		.file 2 "/usr/lib/gcc/arm-none-eabi/10.3.1/include/stdint.h"
 296              		.file 3 "Drivers/CMSIS/Device/ST/STM32F1xx/Include/stm32f103x6.h"
 297              		.file 4 "Drivers/STM32F1xx_HAL_Driver/Inc/stm32f1xx_hal_def.h"
 298              		.file 5 "Drivers/STM32F1xx_HAL_Driver/Inc/stm32f1xx_hal_gpio.h"
 299              		.file 6 "Drivers/STM32F1xx_HAL_Driver/Inc/stm32f1xx_hal_dma.h"
 300              		.file 7 "Drivers/STM32F1xx_HAL_Driver/Inc/stm32f1xx_hal_i2c.h"
 301              		.file 8 "Core/Inc/i2c.h"
 302              		.file 9 "Core/Inc/main.h"
ARM GAS  /tmp/cc5DoC4V.s 			page 9

